target datalayout = "e-m:e-p270:32:32-p271:32:32-p272:64:64-i64:64-i128:128-f80:128-n8:16:32:64-S128"
target triple = "x86_64-pc-linux-gnu"

%struct.mbedtls_ecp_point = type { %struct.mbedtls_mpi, %struct.mbedtls_mpi, %struct.mbedtls_mpi }
%struct.mbedtls_mpi = type { ptr, i16, i16 }
%struct.mbedtls_ecp_group = type { i32, %struct.mbedtls_mpi, %struct.mbedtls_mpi, %struct.mbedtls_mpi, %struct.mbedtls_ecp_point, %struct.mbedtls_mpi, i64, i64, i32, ptr, ptr, ptr, ptr, ptr, i64 }

; Function Attrs: nounwind uwtable
define hidden i32 @mbedtls_ecdsa_can_do(i32 noundef %0) #0 {
  %2 = alloca i32, align 4
  %3 = alloca i32, align 4
  store i32 %0, ptr %3, align 4, !tbaa !3
  %4 = load i32, ptr %3, align 4, !tbaa !3
  switch i32 %4, label %7 [
    i32 9, label %5
    i32 13, label %6
  ]

5:                                                ; preds = %1
  store i32 0, ptr %2, align 4
  br label %8

6:                                                ; preds = %1
  store i32 0, ptr %2, align 4
  br label %8

7:                                                ; preds = %1
  store i32 1, ptr %2, align 4
  br label %8

8:                                                ; preds = %7, %6, %5
  %9 = load i32, ptr %2, align 4
  ret i32 %9
}

; Function Attrs: nounwind uwtable
define hidden i32 @mbedtls_ecdsa_sign_restartable(ptr noundef %0, ptr noundef %1, ptr noundef %2, ptr noundef %3, ptr noundef %4, i64 noundef %5, ptr noundef %6, ptr noundef %7, ptr noundef %8, ptr noundef %9, ptr noundef %10) #0 {
  %12 = alloca i32, align 4
  %13 = alloca ptr, align 8
  %14 = alloca ptr, align 8
  %15 = alloca ptr, align 8
  %16 = alloca ptr, align 8
  %17 = alloca ptr, align 8
  %18 = alloca i64, align 8
  %19 = alloca ptr, align 8
  %20 = alloca ptr, align 8
  %21 = alloca ptr, align 8
  %22 = alloca ptr, align 8
  %23 = alloca ptr, align 8
  %24 = alloca i32, align 4
  %25 = alloca i32, align 4
  %26 = alloca i32, align 4
  %27 = alloca ptr, align 8
  %28 = alloca ptr, align 8
  %29 = alloca %struct.mbedtls_ecp_point, align 8
  %30 = alloca %struct.mbedtls_mpi, align 8
  %31 = alloca %struct.mbedtls_mpi, align 8
  %32 = alloca %struct.mbedtls_mpi, align 8
  %33 = alloca ptr, align 8
  %34 = alloca ptr, align 8
  %35 = alloca i32, align 4
  store ptr %0, ptr %13, align 8, !tbaa !7
  store ptr %1, ptr %14, align 8, !tbaa !10
  store ptr %2, ptr %15, align 8, !tbaa !10
  store ptr %3, ptr %16, align 8, !tbaa !10
  store ptr %4, ptr %17, align 8, !tbaa !12
  store i64 %5, ptr %18, align 8, !tbaa !14
  store ptr %6, ptr %19, align 8, !tbaa !16
  store ptr %7, ptr %20, align 8, !tbaa !16
  store ptr %8, ptr %21, align 8, !tbaa !16
  store ptr %9, ptr %22, align 8, !tbaa !16
  store ptr %10, ptr %23, align 8, !tbaa !16
  call void @llvm.lifetime.start.p0(i64 4, ptr %24) #6
  call void @llvm.lifetime.start.p0(i64 4, ptr %25) #6
  call void @llvm.lifetime.start.p0(i64 4, ptr %26) #6
  call void @llvm.lifetime.start.p0(i64 8, ptr %27) #6
  store ptr %26, ptr %27, align 8, !tbaa !17
  call void @llvm.lifetime.start.p0(i64 8, ptr %28) #6
  store ptr %25, ptr %28, align 8, !tbaa !17
  call void @llvm.lifetime.start.p0(i64 48, ptr %29) #6
  call void @llvm.lifetime.start.p0(i64 16, ptr %30) #6
  call void @llvm.lifetime.start.p0(i64 16, ptr %31) #6
  call void @llvm.lifetime.start.p0(i64 16, ptr %32) #6
  call void @llvm.lifetime.start.p0(i64 8, ptr %33) #6
  store ptr %30, ptr %33, align 8, !tbaa !10
  call void @llvm.lifetime.start.p0(i64 8, ptr %34) #6
  %36 = load ptr, ptr %14, align 8, !tbaa !10
  store ptr %36, ptr %34, align 8, !tbaa !10
  %37 = load ptr, ptr %13, align 8, !tbaa !7
  %38 = getelementptr inbounds nuw %struct.mbedtls_ecp_group, ptr %37, i32 0, i32 0
  %39 = load i32, ptr %38, align 8, !tbaa !19
  %40 = call i32 @mbedtls_ecdsa_can_do(i32 noundef %39)
  %41 = icmp ne i32 %40, 0
  br i1 %41, label %42, label %48

42:                                               ; preds = %11
  %43 = load ptr, ptr %13, align 8, !tbaa !7
  %44 = getelementptr inbounds nuw %struct.mbedtls_ecp_group, ptr %43, i32 0, i32 5
  %45 = getelementptr inbounds nuw %struct.mbedtls_mpi, ptr %44, i32 0, i32 0
  %46 = load ptr, ptr %45, align 8, !tbaa !26
  %47 = icmp eq ptr %46, null
  br i1 %47, label %48, label %49

48:                                               ; preds = %42, %11
  store i32 -20352, ptr %12, align 4
  store i32 1, ptr %35, align 4
  br label %220

49:                                               ; preds = %42
  %50 = load ptr, ptr %16, align 8, !tbaa !10
  %51 = call i32 @mbedtls_mpi_cmp_int(ptr noundef %50, i64 noundef 1)
  %52 = icmp slt i32 %51, 0
  br i1 %52, label %59, label %53

53:                                               ; preds = %49
  %54 = load ptr, ptr %16, align 8, !tbaa !10
  %55 = load ptr, ptr %13, align 8, !tbaa !7
  %56 = getelementptr inbounds nuw %struct.mbedtls_ecp_group, ptr %55, i32 0, i32 5
  %57 = call i32 @mbedtls_mpi_cmp_mpi(ptr noundef %54, ptr noundef %56)
  %58 = icmp sge i32 %57, 0
  br i1 %58, label %59, label %60

59:                                               ; preds = %53, %49
  store i32 -19584, ptr %12, align 4
  store i32 1, ptr %35, align 4
  br label %220

60:                                               ; preds = %53
  call void @mbedtls_ecp_point_init(ptr noundef %29)
  call void @mbedtls_mpi_init(ptr noundef %30)
  call void @mbedtls_mpi_init(ptr noundef %31)
  call void @mbedtls_mpi_init(ptr noundef %32)
  %61 = load ptr, ptr %27, align 8, !tbaa !17
  store i32 0, ptr %61, align 4, !tbaa !3
  br label %62

62:                                               ; preds = %213, %60
  %63 = load ptr, ptr %27, align 8, !tbaa !17
  %64 = load i32, ptr %63, align 4, !tbaa !3
  %65 = add nsw i32 %64, 1
  store i32 %65, ptr %63, align 4, !tbaa !3
  %66 = icmp sgt i32 %64, 10
  br i1 %66, label %67, label %68

67:                                               ; preds = %62
  store i32 -19712, ptr %24, align 4, !tbaa !3
  br label %218

68:                                               ; preds = %62
  %69 = load ptr, ptr %28, align 8, !tbaa !17
  store i32 0, ptr %69, align 4, !tbaa !3
  br label %70

70:                                               ; preds = %112, %68
  %71 = load ptr, ptr %28, align 8, !tbaa !17
  %72 = load i32, ptr %71, align 4, !tbaa !3
  %73 = add nsw i32 %72, 1
  store i32 %73, ptr %71, align 4, !tbaa !3
  %74 = icmp sgt i32 %72, 10
  br i1 %74, label %75, label %76

75:                                               ; preds = %70
  store i32 -19712, ptr %24, align 4, !tbaa !3
  br label %218

76:                                               ; preds = %70
  br label %77

77:                                               ; preds = %76
  %78 = load ptr, ptr %13, align 8, !tbaa !7
  %79 = load ptr, ptr %33, align 8, !tbaa !10
  %80 = load ptr, ptr %19, align 8, !tbaa !16
  %81 = load ptr, ptr %20, align 8, !tbaa !16
  %82 = call i32 @mbedtls_ecp_gen_privkey(ptr noundef %78, ptr noundef %79, ptr noundef %80, ptr noundef %81)
  store i32 %82, ptr %24, align 4, !tbaa !3
  %83 = icmp ne i32 %82, 0
  br i1 %83, label %84, label %85

84:                                               ; preds = %77
  br label %218

85:                                               ; preds = %77
  br label %86

86:                                               ; preds = %85
  br label %87

87:                                               ; preds = %86
  br label %88

88:                                               ; preds = %87
  %89 = load ptr, ptr %13, align 8, !tbaa !7
  %90 = load ptr, ptr %33, align 8, !tbaa !10
  %91 = load ptr, ptr %13, align 8, !tbaa !7
  %92 = getelementptr inbounds nuw %struct.mbedtls_ecp_group, ptr %91, i32 0, i32 4
  %93 = load ptr, ptr %21, align 8, !tbaa !16
  %94 = load ptr, ptr %22, align 8, !tbaa !16
  %95 = call i32 @mbedtls_ecp_mul_restartable(ptr noundef %89, ptr noundef %29, ptr noundef %90, ptr noundef %92, ptr noundef %93, ptr noundef %94, ptr noundef null)
  store i32 %95, ptr %24, align 4, !tbaa !3
  %96 = icmp ne i32 %95, 0
  br i1 %96, label %97, label %98

97:                                               ; preds = %88
  br label %218

98:                                               ; preds = %88
  br label %99

99:                                               ; preds = %98
  br label %100

100:                                              ; preds = %99
  br label %101

101:                                              ; preds = %100
  %102 = load ptr, ptr %34, align 8, !tbaa !10
  %103 = getelementptr inbounds nuw %struct.mbedtls_ecp_point, ptr %29, i32 0, i32 0
  %104 = load ptr, ptr %13, align 8, !tbaa !7
  %105 = getelementptr inbounds nuw %struct.mbedtls_ecp_group, ptr %104, i32 0, i32 5
  %106 = call i32 @mbedtls_mpi_mod_mpi(ptr noundef %102, ptr noundef %103, ptr noundef %105)
  store i32 %106, ptr %24, align 4, !tbaa !3
  %107 = icmp ne i32 %106, 0
  br i1 %107, label %108, label %109

108:                                              ; preds = %101
  br label %218

109:                                              ; preds = %101
  br label %110

110:                                              ; preds = %109
  br label %111

111:                                              ; preds = %110
  br label %112

112:                                              ; preds = %111
  %113 = load ptr, ptr %34, align 8, !tbaa !10
  %114 = call i32 @mbedtls_mpi_cmp_int(ptr noundef %113, i64 noundef 0)
  %115 = icmp eq i32 %114, 0
  br i1 %115, label %70, label %116, !llvm.loop !27

116:                                              ; preds = %112
  br label %117

117:                                              ; preds = %116
  %118 = load ptr, ptr %13, align 8, !tbaa !7
  %119 = load ptr, ptr %17, align 8, !tbaa !12
  %120 = load i64, ptr %18, align 8, !tbaa !14
  %121 = call i32 @derive_mpi(ptr noundef %118, ptr noundef %31, ptr noundef %119, i64 noundef %120)
  store i32 %121, ptr %24, align 4, !tbaa !3
  %122 = icmp ne i32 %121, 0
  br i1 %122, label %123, label %124

123:                                              ; preds = %117
  br label %218

124:                                              ; preds = %117
  br label %125

125:                                              ; preds = %124
  br label %126

126:                                              ; preds = %125
  br label %127

127:                                              ; preds = %126
  %128 = load ptr, ptr %13, align 8, !tbaa !7
  %129 = load ptr, ptr %21, align 8, !tbaa !16
  %130 = load ptr, ptr %22, align 8, !tbaa !16
  %131 = call i32 @mbedtls_ecp_gen_privkey(ptr noundef %128, ptr noundef %32, ptr noundef %129, ptr noundef %130)
  store i32 %131, ptr %24, align 4, !tbaa !3
  %132 = icmp ne i32 %131, 0
  br i1 %132, label %133, label %134

133:                                              ; preds = %127
  br label %218

134:                                              ; preds = %127
  br label %135

135:                                              ; preds = %134
  br label %136

136:                                              ; preds = %135
  br label %137

137:                                              ; preds = %136
  %138 = load ptr, ptr %15, align 8, !tbaa !10
  %139 = load ptr, ptr %34, align 8, !tbaa !10
  %140 = load ptr, ptr %16, align 8, !tbaa !10
  %141 = call i32 @mbedtls_mpi_mul_mpi(ptr noundef %138, ptr noundef %139, ptr noundef %140)
  store i32 %141, ptr %24, align 4, !tbaa !3
  %142 = icmp ne i32 %141, 0
  br i1 %142, label %143, label %144

143:                                              ; preds = %137
  br label %218

144:                                              ; preds = %137
  br label %145

145:                                              ; preds = %144
  br label %146

146:                                              ; preds = %145
  br label %147

147:                                              ; preds = %146
  %148 = load ptr, ptr %15, align 8, !tbaa !10
  %149 = call i32 @mbedtls_mpi_add_mpi(ptr noundef %31, ptr noundef %31, ptr noundef %148)
  store i32 %149, ptr %24, align 4, !tbaa !3
  %150 = icmp ne i32 %149, 0
  br i1 %150, label %151, label %152

151:                                              ; preds = %147
  br label %218

152:                                              ; preds = %147
  br label %153

153:                                              ; preds = %152
  br label %154

154:                                              ; preds = %153
  br label %155

155:                                              ; preds = %154
  %156 = call i32 @mbedtls_mpi_mul_mpi(ptr noundef %31, ptr noundef %31, ptr noundef %32)
  store i32 %156, ptr %24, align 4, !tbaa !3
  %157 = icmp ne i32 %156, 0
  br i1 %157, label %158, label %159

158:                                              ; preds = %155
  br label %218

159:                                              ; preds = %155
  br label %160

160:                                              ; preds = %159
  br label %161

161:                                              ; preds = %160
  br label %162

162:                                              ; preds = %161
  %163 = load ptr, ptr %33, align 8, !tbaa !10
  %164 = load ptr, ptr %33, align 8, !tbaa !10
  %165 = call i32 @mbedtls_mpi_mul_mpi(ptr noundef %163, ptr noundef %164, ptr noundef %32)
  store i32 %165, ptr %24, align 4, !tbaa !3
  %166 = icmp ne i32 %165, 0
  br i1 %166, label %167, label %168

167:                                              ; preds = %162
  br label %218

168:                                              ; preds = %162
  br label %169

169:                                              ; preds = %168
  br label %170

170:                                              ; preds = %169
  br label %171

171:                                              ; preds = %170
  %172 = load ptr, ptr %33, align 8, !tbaa !10
  %173 = load ptr, ptr %33, align 8, !tbaa !10
  %174 = load ptr, ptr %13, align 8, !tbaa !7
  %175 = getelementptr inbounds nuw %struct.mbedtls_ecp_group, ptr %174, i32 0, i32 5
  %176 = call i32 @mbedtls_mpi_mod_mpi(ptr noundef %172, ptr noundef %173, ptr noundef %175)
  store i32 %176, ptr %24, align 4, !tbaa !3
  %177 = icmp ne i32 %176, 0
  br i1 %177, label %178, label %179

178:                                              ; preds = %171
  br label %218

179:                                              ; preds = %171
  br label %180

180:                                              ; preds = %179
  br label %181

181:                                              ; preds = %180
  br label %182

182:                                              ; preds = %181
  %183 = load ptr, ptr %15, align 8, !tbaa !10
  %184 = load ptr, ptr %33, align 8, !tbaa !10
  %185 = load ptr, ptr %13, align 8, !tbaa !7
  %186 = getelementptr inbounds nuw %struct.mbedtls_ecp_group, ptr %185, i32 0, i32 5
  %187 = call i32 @mbedtls_mpi_inv_mod(ptr noundef %183, ptr noundef %184, ptr noundef %186)
  store i32 %187, ptr %24, align 4, !tbaa !3
  %188 = icmp ne i32 %187, 0
  br i1 %188, label %189, label %190

189:                                              ; preds = %182
  br label %218

190:                                              ; preds = %182
  br label %191

191:                                              ; preds = %190
  br label %192

192:                                              ; preds = %191
  br label %193

193:                                              ; preds = %192
  %194 = load ptr, ptr %15, align 8, !tbaa !10
  %195 = load ptr, ptr %15, align 8, !tbaa !10
  %196 = call i32 @mbedtls_mpi_mul_mpi(ptr noundef %194, ptr noundef %195, ptr noundef %31)
  store i32 %196, ptr %24, align 4, !tbaa !3
  %197 = icmp ne i32 %196, 0
  br i1 %197, label %198, label %199

198:                                              ; preds = %193
  br label %218

199:                                              ; preds = %193
  br label %200

200:                                              ; preds = %199
  br label %201

201:                                              ; preds = %200
  br label %202

202:                                              ; preds = %201
  %203 = load ptr, ptr %15, align 8, !tbaa !10
  %204 = load ptr, ptr %15, align 8, !tbaa !10
  %205 = load ptr, ptr %13, align 8, !tbaa !7
  %206 = getelementptr inbounds nuw %struct.mbedtls_ecp_group, ptr %205, i32 0, i32 5
  %207 = call i32 @mbedtls_mpi_mod_mpi(ptr noundef %203, ptr noundef %204, ptr noundef %206)
  store i32 %207, ptr %24, align 4, !tbaa !3
  %208 = icmp ne i32 %207, 0
  br i1 %208, label %209, label %210

209:                                              ; preds = %202
  br label %218

210:                                              ; preds = %202
  br label %211

211:                                              ; preds = %210
  br label %212

212:                                              ; preds = %211
  br label %213

213:                                              ; preds = %212
  %214 = load ptr, ptr %15, align 8, !tbaa !10
  %215 = call i32 @mbedtls_mpi_cmp_int(ptr noundef %214, i64 noundef 0)
  %216 = icmp eq i32 %215, 0
  br i1 %216, label %62, label %217, !llvm.loop !29

217:                                              ; preds = %213
  br label %218

218:                                              ; preds = %217, %209, %198, %189, %178, %167, %158, %151, %143, %133, %123, %108, %97, %84, %75, %67
  call void @mbedtls_ecp_point_free(ptr noundef %29)
  call void @mbedtls_mpi_free(ptr noundef %30)
  call void @mbedtls_mpi_free(ptr noundef %31)
  call void @mbedtls_mpi_free(ptr noundef %32)
  %219 = load i32, ptr %24, align 4, !tbaa !3
  store i32 %219, ptr %12, align 4
  store i32 1, ptr %35, align 4
  br label %220

220:                                              ; preds = %218, %59, %48
  call void @llvm.lifetime.end.p0(i64 8, ptr %34) #6
  call void @llvm.lifetime.end.p0(i64 8, ptr %33) #6
  call void @llvm.lifetime.end.p0(i64 16, ptr %32) #6
  call void @llvm.lifetime.end.p0(i64 16, ptr %31) #6
  call void @llvm.lifetime.end.p0(i64 16, ptr %30) #6
  call void @llvm.lifetime.end.p0(i64 48, ptr %29) #6
  call void @llvm.lifetime.end.p0(i64 8, ptr %28) #6
  call void @llvm.lifetime.end.p0(i64 8, ptr %27) #6
  call void @llvm.lifetime.end.p0(i64 4, ptr %26) #6
  call void @llvm.lifetime.end.p0(i64 4, ptr %25) #6
  call void @llvm.lifetime.end.p0(i64 4, ptr %24) #6
  %221 = load i32, ptr %12, align 4
  ret i32 %221
}