; Function Attrs: nounwind uwtable
define hidden i32 @mbedtls_ecdsa_sign_restartable(ptr noundef %0, ptr noundef %1, ptr noundef %2, ptr noundef %3, ptr noundef %4, i64 noundef %5, ptr noundef %6, ptr noundef %7, ptr noundef %8, ptr noundef %9, ptr readnone captures(none) %10) local_unnamed_addr #1 {
  %12 = alloca %struct.mbedtls_ecp_point, align 8
  %13 = alloca %struct.mbedtls_mpi, align 8
  %14 = alloca %struct.mbedtls_mpi, align 8
  %15 = alloca %struct.mbedtls_mpi, align 8
  call void @llvm.lifetime.start.p0(i64 48, ptr nonnull %12) #7
  call void @llvm.lifetime.start.p0(i64 16, ptr nonnull %13) #7
  call void @llvm.lifetime.start.p0(i64 16, ptr nonnull %14) #7
  call void @llvm.lifetime.start.p0(i64 16, ptr nonnull %15) #7
  %16 = load i32, ptr %0, align 8, !tbaa !3
  %17 = add i32 %16, -9
  %switch.and.i = and i32 %17, -5
  %switch.selectcmp.i.not = icmp eq i32 %switch.and.i, 0
  br i1 %switch.selectcmp.i.not, label %65, label %18

18:                                               ; preds = %11
  %19 = getelementptr inbounds nuw i8, ptr %0, i64 104
  %20 = load ptr, ptr %19, align 8, !tbaa !15
  %21 = icmp eq ptr %20, null
  br i1 %21, label %65, label %22

22:                                               ; preds = %18
  %23 = tail call i32 @mbedtls_mpi_cmp_int(ptr noundef %3, i64 noundef 1) #7
  %24 = icmp slt i32 %23, 0
  br i1 %24, label %65, label %25

25:                                               ; preds = %22
  %26 = tail call i32 @mbedtls_mpi_cmp_mpi(ptr noundef %3, ptr noundef nonnull %19) #7
  %27 = icmp sgt i32 %26, -1
  br i1 %27, label %65, label %28

28:                                               ; preds = %25
  call void @mbedtls_ecp_point_init(ptr noundef nonnull %12) #7
  call void @mbedtls_mpi_init(ptr noundef nonnull %13) #7
  call void @mbedtls_mpi_init(ptr noundef nonnull %14) #7
  call void @mbedtls_mpi_init(ptr noundef nonnull %15) #7
  %29 = getelementptr inbounds nuw i8, ptr %0, i64 56
  br label %30

30:                                               ; preds = %62, %28
  %.049 = phi i32 [ 0, %28 ], [ %31, %62 ]
  %31 = add nuw nsw i32 %.049, 1
  %exitcond81 = icmp eq i32 %.049, 11
  br i1 %exitcond81, label %.loopexit, label %.preheader

.preheader:                                       ; preds = %30, %39
  %.050 = phi i32 [ %32, %39 ], [ 0, %30 ]
  %32 = add nuw nsw i32 %.050, 1
  %exitcond = icmp eq i32 %.050, 11
  br i1 %exitcond, label %.loopexit, label %33

33:                                               ; preds = %.preheader
  %34 = call i32 @mbedtls_ecp_gen_privkey(ptr noundef nonnull %0, ptr noundef nonnull %13, ptr noundef %6, ptr noundef %7) #7
  %.not64 = icmp eq i32 %34, 0
  br i1 %.not64, label %35, label %.loopexit

35:                                               ; preds = %33
  %36 = call i32 @mbedtls_ecp_mul_restartable(ptr noundef nonnull %0, ptr noundef nonnull %12, ptr noundef nonnull %13, ptr noundef nonnull %29, ptr noundef %8, ptr noundef %9, ptr noundef null) #7
  %.not65 = icmp eq i32 %36, 0
  br i1 %.not65, label %37, label %.loopexit

37:                                               ; preds = %35
  %38 = call i32 @mbedtls_mpi_mod_mpi(ptr noundef %1, ptr noundef nonnull %12, ptr noundef nonnull %19) #7
  %.not66 = icmp eq i32 %38, 0
  br i1 %.not66, label %39, label %.loopexit

39:                                               ; preds = %37
  %40 = call i32 @mbedtls_mpi_cmp_int(ptr noundef %1, i64 noundef 0) #7
  %41 = icmp eq i32 %40, 0
  br i1 %41, label %.preheader, label %42, !llvm.loop !16

42:                                               ; preds = %39
  %43 = call fastcc i32 @derive_mpi(ptr noundef nonnull %0, ptr noundef %14, ptr noundef %4, i64 noundef %5)
  %.not67 = icmp eq i32 %43, 0
  br i1 %.not67, label %44, label %.loopexit

44:                                               ; preds = %42
  %45 = call i32 @mbedtls_ecp_gen_privkey(ptr noundef nonnull %0, ptr noundef nonnull %15, ptr noundef %8, ptr noundef %9) #7
  %.not68 = icmp eq i32 %45, 0
  br i1 %.not68, label %46, label %.loopexit

46:                                               ; preds = %44
  %47 = call i32 @mbedtls_mpi_mul_mpi(ptr noundef %2, ptr noundef %1, ptr noundef %3) #7
  %.not69 = icmp eq i32 %47, 0
  br i1 %.not69, label %48, label %.loopexit

48:                                               ; preds = %46
  %49 = call i32 @mbedtls_mpi_add_mpi(ptr noundef nonnull %14, ptr noundef nonnull %14, ptr noundef %2) #7
  %.not70 = icmp eq i32 %49, 0
  br i1 %.not70, label %50, label %.loopexit

50:                                               ; preds = %48
  %51 = call i32 @mbedtls_mpi_mul_mpi(ptr noundef nonnull %14, ptr noundef nonnull %14, ptr noundef nonnull %15) #7
  %.not71 = icmp eq i32 %51, 0
  br i1 %.not71, label %52, label %.loopexit

52:                                               ; preds = %50
  %53 = call i32 @mbedtls_mpi_mul_mpi(ptr noundef nonnull %13, ptr noundef nonnull %13, ptr noundef nonnull %15) #7
  %.not72 = icmp eq i32 %53, 0
  br i1 %.not72, label %54, label %.loopexit

54:                                               ; preds = %52
  %55 = call i32 @mbedtls_mpi_mod_mpi(ptr noundef nonnull %13, ptr noundef nonnull %13, ptr noundef nonnull %19) #7
  %.not73 = icmp eq i32 %55, 0
  br i1 %.not73, label %56, label %.loopexit

56:                                               ; preds = %54
  %57 = call i32 @mbedtls_mpi_inv_mod(ptr noundef %2, ptr noundef nonnull %13, ptr noundef nonnull %19) #7
  %.not74 = icmp eq i32 %57, 0
  br i1 %.not74, label %58, label %.loopexit

58:                                               ; preds = %56
  %59 = call i32 @mbedtls_mpi_mul_mpi(ptr noundef %2, ptr noundef %2, ptr noundef nonnull %14) #7
  %.not75 = icmp eq i32 %59, 0
  br i1 %.not75, label %60, label %.loopexit

60:                                               ; preds = %58
  %61 = call i32 @mbedtls_mpi_mod_mpi(ptr noundef %2, ptr noundef %2, ptr noundef nonnull %19) #7
  %.not76 = icmp eq i32 %61, 0
  br i1 %.not76, label %62, label %.loopexit

62:                                               ; preds = %60
  %63 = call i32 @mbedtls_mpi_cmp_int(ptr noundef %2, i64 noundef 0) #7
  %64 = icmp eq i32 %63, 0
  br i1 %64, label %30, label %.loopexit, !llvm.loop !18

.loopexit:                                        ; preds = %30, %62, %60, %58, %56, %54, %52, %50, %48, %46, %44, %42, %.preheader, %37, %35, %33
  %.047 = phi i32 [ -19712, %.preheader ], [ %38, %37 ], [ %36, %35 ], [ %34, %33 ], [ -19712, %30 ], [ 0, %62 ], [ %61, %60 ], [ %59, %58 ], [ %57, %56 ], [ %55, %54 ], [ %53, %52 ], [ %51, %50 ], [ %49, %48 ], [ %47, %46 ], [ %45, %44 ], [ %43, %42 ]
  call void @mbedtls_ecp_point_free(ptr noundef nonnull %12) #7
  call void @mbedtls_mpi_free(ptr noundef nonnull %13) #7
  call void @mbedtls_mpi_free(ptr noundef nonnull %14) #7
  call void @mbedtls_mpi_free(ptr noundef nonnull %15) #7
  br label %65

65:                                               ; preds = %22, %25, %11, %18, %.loopexit
  %.0 = phi i32 [ %.047, %.loopexit ], [ -20352, %18 ], [ -20352, %11 ], [ -19584, %25 ], [ -19584, %22 ]
  call void @llvm.lifetime.end.p0(i64 16, ptr nonnull %15) #7
  call void @llvm.lifetime.end.p0(i64 16, ptr nonnull %14) #7
  call void @llvm.lifetime.end.p0(i64 16, ptr nonnull %13) #7
  call void @llvm.lifetime.end.p0(i64 48, ptr nonnull %12) #7
  ret i32 %.0
}